target datalayout = "e-m:e-p270:32:32-p271:32:32-p272:64:64-i64:64-i128:128-f80:128-n8:16:32:64-S128"
target triple = "x86_64-pc-linux-gnu"

; Function Attrs: nounwind uwtable
define internal ptr @encode_locale(ptr noundef %0, ptr noundef %1, i32 noundef %2, i32 noundef %3) #0 {
  %5 = alloca ptr, align 8
  %6 = alloca ptr, align 8
  %7 = alloca ptr, align 8
  %8 = alloca i32, align 4
  %9 = alloca i32, align 4
  %10 = alloca ptr, align 8
  %11 = alloca i32, align 4
  %12 = alloca i32, align 4
  store ptr %0, ptr %6, align 8, !tbaa !177
  store ptr %1, ptr %7, align 8, !tbaa !189
  store i32 %2, ptr %8, align 4, !tbaa !4
  store i32 %3, ptr %9, align 4, !tbaa !4
  call void @llvm.lifetime.start.p0(i64 8, ptr %10) #10
  call void @llvm.lifetime.start.p0(i64 4, ptr %11) #10
  %13 = load ptr, ptr %6, align 8, !tbaa !177
  %14 = load ptr, ptr %7, align 8, !tbaa !189
  %15 = load i32, ptr %8, align 4, !tbaa !4
  %16 = load i32, ptr %9, align 4, !tbaa !4
  %17 = call i32 @encode_locale_ex(ptr noundef %13, ptr noundef %10, ptr noundef %14, ptr noundef null, i32 noundef %15, i32 noundef %16, i32 noundef 2)
  store i32 %17, ptr %11, align 4, !tbaa !4
  %18 = load i32, ptr %11, align 4, !tbaa !4
  %19 = icmp ne i32 %18, -2
  br i1 %19, label %20, label %25

20:                                               ; preds = %4
  %21 = load ptr, ptr %7, align 8, !tbaa !189
  %22 = icmp ne ptr %21, null
  br i1 %22, label %23, label %25

23:                                               ; preds = %20
  %24 = load ptr, ptr %7, align 8, !tbaa !189
  store i64 -1, ptr %24, align 8, !tbaa !186
  br label %25

25:                                               ; preds = %23, %20, %4
  %26 = load i32, ptr %11, align 4, !tbaa !4
  %27 = icmp ne i32 %26, 0
  br i1 %27, label %28, label %29

28:                                               ; preds = %25
  store ptr null, ptr %5, align 8
  store i32 1, ptr %12, align 4
  br label %31

29:                                               ; preds = %25
  %30 = load ptr, ptr %10, align 8, !tbaa !180
  store ptr %30, ptr %5, align 8
  store i32 1, ptr %12, align 4
  br label %31

31:                                               ; preds = %29, %28
  call void @llvm.lifetime.end.p0(i64 4, ptr %11) #10
  call void @llvm.lifetime.end.p0(i64 8, ptr %10) #10
  %32 = load ptr, ptr %5, align 8
  ret ptr %32
}

; Function Attrs: nounwind uwtable
define dso_local ptr @Py_DecodeLocale(ptr noundef %0, ptr noundef %1) #0 {
  %3 = alloca ptr, align 8
  %4 = alloca ptr, align 8
  %5 = alloca ptr, align 8
  %6 = alloca ptr, align 8
  %7 = alloca i32, align 4
  %8 = alloca i32, align 4
  store ptr %0, ptr %4, align 8, !tbaa !180
  store ptr %1, ptr %5, align 8, !tbaa !189
  call void @llvm.lifetime.start.p0(i64 8, ptr %6) #10
  call void @llvm.lifetime.start.p0(i64 4, ptr %7) #10
  %9 = load ptr, ptr %4, align 8, !tbaa !180
  %10 = load ptr, ptr %5, align 8, !tbaa !189
  %11 = call i32 @_Py_DecodeLocaleEx(ptr noundef %9, ptr noundef %6, ptr noundef %10, ptr noundef null, i32 noundef 0, i32 noundef 2)
  store i32 %11, ptr %7, align 4, !tbaa !4
  %12 = load i32, ptr %7, align 4, !tbaa !4
  %13 = icmp ne i32 %12, 0
  br i1 %13, label %14, label %22

14:                                               ; preds = %2
  %15 = load ptr, ptr %5, align 8, !tbaa !189
  %16 = icmp ne ptr %15, null
  br i1 %16, label %17, label %21

17:                                               ; preds = %14
  %18 = load i32, ptr %7, align 4, !tbaa !4
  %19 = sext i32 %18 to i64
  %20 = load ptr, ptr %5, align 8, !tbaa !189
  store i64 %19, ptr %20, align 8, !tbaa !186
  br label %21

21:                                               ; preds = %17, %14
  store ptr null, ptr %3, align 8
  store i32 1, ptr %8, align 4
  br label %24

22:                                               ; preds = %2
  %23 = load ptr, ptr %6, align 8, !tbaa !177
  store ptr %23, ptr %3, align 8
  store i32 1, ptr %8, align 4
  br label %24

24:                                               ; preds = %22, %21
  call void @llvm.lifetime.end.p0(i64 4, ptr %7) #10
  call void @llvm.lifetime.end.p0(i64 8, ptr %6) #10
  %25 = load ptr, ptr %3, align 8
  ret ptr %25
}

; Function Attrs: nounwind uwtable
define hidden ptr @_Py_EncodeLocaleRaw(ptr noundef %0, ptr noundef %1) #0 {
  %3 = alloca ptr, align 8
  %4 = alloca ptr, align 8
  store ptr %0, ptr %3, align 8, !tbaa !177
  store ptr %1, ptr %4, align 8, !tbaa !189
  %5 = load ptr, ptr %3, align 8, !tbaa !177
  %6 = load ptr, ptr %4, align 8, !tbaa !189
  %7 = call ptr @encode_locale(ptr noundef %5, ptr noundef %6, i32 noundef 1, i32 noundef 0)
  ret ptr %7
}

; Function Attrs: nounwind uwtable
define hidden ptr @_Py_wrealpath(ptr noundef %0, ptr noundef %1, i64 noundef %2) #0 {
  %4 = alloca ptr, align 8
  %5 = alloca ptr, align 8
  %6 = alloca ptr, align 8
  %7 = alloca i64, align 8
  %8 = alloca ptr, align 8
  %9 = alloca [4096 x i8], align 16
  %10 = alloca ptr, align 8
  %11 = alloca ptr, align 8
  %12 = alloca i64, align 8
  %13 = alloca i32, align 4
  store ptr %0, ptr %5, align 8, !tbaa !177
  store ptr %1, ptr %6, align 8, !tbaa !177
  store i64 %2, ptr %7, align 8, !tbaa !186
  call void @llvm.lifetime.start.p0(i64 8, ptr %8) #10
  call void @llvm.lifetime.start.p0(i64 4096, ptr %9) #10
  call void @llvm.lifetime.start.p0(i64 8, ptr %10) #10
  call void @llvm.lifetime.start.p0(i64 8, ptr %11) #10
  call void @llvm.lifetime.start.p0(i64 8, ptr %12) #10
  %14 = load ptr, ptr %5, align 8, !tbaa !177
  %15 = call ptr @_Py_EncodeLocaleRaw(ptr noundef %14, ptr noundef null)
  store ptr %15, ptr %8, align 8, !tbaa !180
  %16 = load ptr, ptr %8, align 8, !tbaa !180
  %17 = icmp eq ptr %16, null
  br i1 %17, label %18, label %20

18:                                               ; preds = %3
  %19 = call ptr @__errno_location() #12
  store i32 22, ptr %19, align 4, !tbaa !4
  store ptr null, ptr %4, align 8
  store i32 1, ptr %13, align 4
  br label %49

20:                                               ; preds = %3
  %21 = load ptr, ptr %8, align 8, !tbaa !180
  %22 = getelementptr inbounds [4096 x i8], ptr %9, i64 0, i64 0
  %23 = call ptr @realpath(ptr noundef %21, ptr noundef %22) #10
  store ptr %23, ptr %11, align 8, !tbaa !180
  %24 = load ptr, ptr %8, align 8, !tbaa !180
  call void @PyMem_RawFree(ptr noundef %24)
  %25 = load ptr, ptr %11, align 8, !tbaa !180
  %26 = icmp eq ptr %25, null
  br i1 %26, label %27, label %28

27:                                               ; preds = %20
  store ptr null, ptr %4, align 8
  store i32 1, ptr %13, align 4
  br label %49

28:                                               ; preds = %20
  %29 = getelementptr inbounds [4096 x i8], ptr %9, i64 0, i64 0
  %30 = call ptr @Py_DecodeLocale(ptr noundef %29, ptr noundef %12)
  store ptr %30, ptr %10, align 8, !tbaa !177
  %31 = load ptr, ptr %10, align 8, !tbaa !177
  %32 = icmp eq ptr %31, null
  br i1 %32, label %33, label %35

33:                                               ; preds = %28
  %34 = call ptr @__errno_location() #12
  store i32 22, ptr %34, align 4, !tbaa !4
  store ptr null, ptr %4, align 8
  store i32 1, ptr %13, align 4
  br label %49

35:                                               ; preds = %28
  %36 = load i64, ptr %7, align 8, !tbaa !186
  %37 = load i64, ptr %12, align 8, !tbaa !186
  %38 = icmp ule i64 %36, %37
  br i1 %38, label %39, label %42

39:                                               ; preds = %35
  %40 = load ptr, ptr %10, align 8, !tbaa !177
  call void @PyMem_RawFree(ptr noundef %40)
  %41 = call ptr @__errno_location() #12
  store i32 22, ptr %41, align 4, !tbaa !4
  store ptr null, ptr %4, align 8
  store i32 1, ptr %13, align 4
  br label %49

42:                                               ; preds = %35
  %43 = load ptr, ptr %6, align 8, !tbaa !177
  %44 = load ptr, ptr %10, align 8, !tbaa !177
  %45 = load i64, ptr %7, align 8, !tbaa !186
  %46 = call ptr @wcsncpy(ptr noundef %43, ptr noundef %44, i64 noundef %45) #10
  %47 = load ptr, ptr %10, align 8, !tbaa !177
  call void @PyMem_RawFree(ptr noundef %47)
  %48 = load ptr, ptr %6, align 8, !tbaa !177
  store ptr %48, ptr %4, align 8
  store i32 1, ptr %13, align 4
  br label %49

49:                                               ; preds = %42, %39, %33, %27, %18
  call void @llvm.lifetime.end.p0(i64 8, ptr %12) #10
  call void @llvm.lifetime.end.p0(i64 8, ptr %11) #10
  call void @llvm.lifetime.end.p0(i64 8, ptr %10) #10
  call void @llvm.lifetime.end.p0(i64 4096, ptr %9) #10
  call void @llvm.lifetime.end.p0(i64 8, ptr %8) #10
  %50 = load ptr, ptr %4, align 8
  ret ptr %50
}