; Function Attrs: nounwind uwtable
define hidden noundef ptr @_Py_wrealpath(ptr noundef %0, ptr noundef %1, i64 noundef %2) local_unnamed_addr #0 {
  %4 = alloca ptr, align 8
  %5 = alloca ptr, align 8
  %6 = alloca [4096 x i8], align 16
  %7 = alloca i64, align 8
  call void @llvm.lifetime.start.p0(i64 4096, ptr nonnull %6) #17
  call void @llvm.lifetime.start.p0(i64 8, ptr nonnull %7) #17
  call void @llvm.lifetime.start.p0(i64 8, ptr nonnull %5) #17
  %8 = call fastcc i32 @encode_locale_ex(ptr noundef %0, ptr noundef nonnull %5, ptr noundef null, ptr noundef null, i32 noundef 1, i32 noundef 0, i32 noundef 2)
  %.not.i.i = icmp ne i32 %8, 0
  %9 = load ptr, ptr %5, align 8
  call void @llvm.lifetime.end.p0(i64 8, ptr nonnull %5) #17
  %10 = icmp eq ptr %9, null
  %11 = select i1 %.not.i.i, i1 true, i1 %10
  br i1 %11, label %12, label %14

12:                                               ; preds = %3
  %13 = tail call ptr @__errno_location() #19
  store i32 22, ptr %13, align 4, !tbaa !180
  br label %29

14:                                               ; preds = %3
  %15 = call ptr @realpath(ptr noundef nonnull %9, ptr noundef nonnull %6) #17
  call void @PyMem_RawFree(ptr noundef nonnull %9) #17
  %16 = icmp eq ptr %15, null
  br i1 %16, label %29, label %17

17:                                               ; preds = %14
  call void @llvm.lifetime.start.p0(i64 8, ptr nonnull %4) #17
  %18 = call i32 @_Py_DecodeLocaleEx(ptr noundef nonnull %6, ptr noundef nonnull %4, ptr noundef nonnull %7, ptr noundef null, i32 noundef 0, i32 noundef 2)
  %.not.i = icmp eq i32 %18, 0
  br i1 %.not.i, label %Py_DecodeLocale.exit, label %Py_DecodeLocale.exit.thread

Py_DecodeLocale.exit.thread:                      ; preds = %17
  call void @llvm.lifetime.end.p0(i64 8, ptr nonnull %4) #17
  br label %21

Py_DecodeLocale.exit:                             ; preds = %17
  %19 = load ptr, ptr %4, align 8, !tbaa !184
  call void @llvm.lifetime.end.p0(i64 8, ptr nonnull %4) #17
  %20 = icmp eq ptr %19, null
  br i1 %20, label %21, label %23

21:                                               ; preds = %Py_DecodeLocale.exit.thread, %Py_DecodeLocale.exit
  %22 = tail call ptr @__errno_location() #19
  store i32 22, ptr %22, align 4, !tbaa !180
  br label %29

23:                                               ; preds = %Py_DecodeLocale.exit
  %24 = load i64, ptr %7, align 8, !tbaa !183
  %.not = icmp ugt i64 %2, %24
  br i1 %.not, label %27, label %25

25:                                               ; preds = %23
  call void @PyMem_RawFree(ptr noundef nonnull %19) #17
  %26 = tail call ptr @__errno_location() #19
  store i32 22, ptr %26, align 4, !tbaa !180
  br label %29

27:                                               ; preds = %23
  %28 = call ptr @wcsncpy(ptr noundef %1, ptr noundef nonnull %19, i64 noundef %2) #17
  call void @PyMem_RawFree(ptr noundef nonnull %19) #17
  br label %29

29:                                               ; preds = %14, %27, %25, %21, %12
  %.0 = phi ptr [ null, %12 ], [ null, %21 ], [ null, %25 ], [ %1, %27 ], [ null, %14 ]
  call void @llvm.lifetime.end.p0(i64 8, ptr nonnull %7) #17
  call void @llvm.lifetime.end.p0(i64 4096, ptr nonnull %6) #17
  ret ptr %.0
}